ccopy_reg
_reconstructor
p0
(chyperopt.base
Trials
p1
c__builtin__
object
p2
Ntp3
Rp4
(dp5
S'attachments'
p6
(dp7
S'ATTACH::0::K562'
p8
cnumpy.core.multiarray
scalar
p9
(cnumpy
dtype
p10
(S'f8'
p11
I0
I1
tp12
Rp13
(I3
S'<'
p14
NNNI-1
I-1
I0
tp15
bS"\x99'\x94\xae\x04\\\xea?"
p16
tp17
Rp18
sS'ATTACH::1::K562'
p19
g9
(g13
S'Vq\xb5\xc9\xae\xc0\xe8?'
p20
tp21
Rp22
sS'ATTACH::0::LCL'
p23
g9
(g13
S'(\xe1\xfe\xcd\x8e\x91\xe3?'
p24
tp25
Rp26
sS'ATTACH::1::LCL'
p27
g9
(g13
S'\xb4\xe9\xfc\xfa\x9bb\xe4?'
p28
tp29
Rp30
ssS'_trials'
p31
(lp32
(dp33
S'refresh_time'
p34
cdatetime
datetime
p35
(S'\x07\xe1\x01\x1a\x07,9\x07\x89\xb0'
p36
tp37
Rp38
sS'book_time'
p39
g35
(S'\x07\xe1\x01\x1a\x07+\x03\x07V\xe8'
p40
tp41
Rp42
sS'misc'
p43
(dp44
S'tid'
p45
I0
sS'idxs'
p46
(dp47
S'dropout'
p48
(lp49
I0
asS'L1'
p50
(lp51
I0
asS'L1_W1'
p52
(lp53
I0
asS'L2'
p54
(lp55
I0
asS'L2_W2'
p56
(lp57
I0
asS'pool_width'
p58
(lp59
I0
assS'cmd'
p60
(S'domain_attachment'
p61
S'FMinIter_Domain'
p62
tp63
sS'vals'
p64
(dp65
g48
(lp66
F0.12287582904376718
asg50
(lp67
F1.5377824887270495e-05
asg52
(lp68
F0.0008569455869078811
asg54
(lp69
F0.0012695620868973397
asg56
(lp70
F0.004055539481284581
asg58
(lp71
F20.0
assS'workdir'
p72
NssS'state'
p73
I2
sg45
I0
sS'exp_key'
p74
NsS'version'
p75
I0
sS'result'
p76
(dp77
S'status'
p78
S'ok'
p79
sS'loss'
p80
F-0.6791407034003127
ssS'owner'
p81
NsS'spec'
p82
Nsa(dp83
g34
g35
(S'\x07\xe1\x01\x1a\x07/ \x0b\xdf\x10'
p84
tp85
Rp86
sg39
g35
(S'\x07\xe1\x01\x1a\x07,9\x0e\x86\xc0'
p87
tp88
Rp89
sg43
(dp90
g45
I1
sg46
(dp91
g48
(lp92
I1
asg50
(lp93
I1
asg52
(lp94
I1
asg54
(lp95
I1
asg56
(lp96
I1
asg58
(lp97
I1
assg60
(g61
g62
tp98
sg64
(dp99
g48
(lp100
F0.03614820439926292
asg50
(lp101
F0.007373377037100249
asg52
(lp102
F2.1227091823477452e-06
asg54
(lp103
F0.02424852372744852
asg56
(lp104
F0.0003453593490064437
asg58
(lp105
F18.0
assg72
Nssg73
I2
sg45
I1
sg74
Nsg75
I0
sg76
(dp106
g78
g79
sg80
F-0.7007794951564503
ssg81
Nsg82
NsasS'_exp_key'
p107
NsS'_dynamic_trials'
p108
(lp109
g33
ag83
asS'_ids'
p110
c__builtin__
set
p111
((lp112
I0
aI1
atp113
Rp114
sb.