ccopy_reg
_reconstructor
p0
(chyperopt.base
Trials
p1
c__builtin__
object
p2
Ntp3
Rp4
(dp5
S'attachments'
p6
(dp7
S'ATTACH::0::K562'
p8
cnumpy.core.multiarray
scalar
p9
(cnumpy
dtype
p10
(S'f8'
p11
I0
I1
tp12
Rp13
(I3
S'<'
p14
NNNI-1
I-1
I0
tp15
bS'\\|\xb6]\x81\xae\xea?'
p16
tp17
Rp18
sS'ATTACH::1::K562'
p19
g9
(g13
S'mu\x88]q\xfe\xea?'
p20
tp21
Rp22
sS'ATTACH::0::LCL'
p23
g9
(g13
S'\xdb\xcb\xac\xc1\xcf\xdd\xe3?'
p24
tp25
Rp26
sS'ATTACH::1::LCL'
p27
g9
(g13
S'\xe0\xc7~\xe6\xe8\xe8\xe4?'
p28
tp29
Rp30
ssS'_trials'
p31
(lp32
(dp33
S'refresh_time'
p34
cdatetime
datetime
p35
(S'\x07\xe1\x01\x1a\x07(/\n\xa6\x90'
p36
tp37
Rp38
sS'book_time'
p39
g35
(S"\x07\xe1\x01\x1a\x07'\x10\x07\x1cP"
p40
tp41
Rp42
sS'misc'
p43
(dp44
S'tid'
p45
I0
sS'idxs'
p46
(dp47
S'dropout'
p48
(lp49
I0
asS'L1'
p50
(lp51
I0
asS'L1_W1'
p52
(lp53
I0
asS'L2'
p54
(lp55
I0
asS'L2_W2'
p56
(lp57
I0
asS'pool_width'
p58
(lp59
I0
assS'cmd'
p60
(S'domain_attachment'
p61
S'FMinIter_Domain'
p62
tp63
sS'vals'
p64
(dp65
g48
(lp66
F0.21112295113708868
asg50
(lp67
F0.014071605397906617
asg52
(lp68
F3.960706513980326e-05
asg54
(lp69
F0.0017719172135824196
asg56
(lp70
F2.3070493151249777e-05
asg58
(lp71
F5.0
assS'workdir'
p72
NssS'state'
p73
I2
sg45
I0
sS'exp_key'
p74
NsS'version'
p75
I0
sS'result'
p76
(dp77
S'status'
p78
S'ok'
p79
sS'loss'
p80
F-0.7442589091927466
ssS'owner'
p81
NsS'spec'
p82
Nsa(dp83
g34
g35
(S'\x07\xe1\x01\x1a\x07*\x15\x0c\xa2`'
p84
tp85
Rp86
sg39
g35
(S'\x07\xe1\x01\x1a\x07(/\n\xba\x18'
p87
tp88
Rp89
sg43
(dp90
g45
I1
sg46
(dp91
g48
(lp92
I1
asg50
(lp93
I1
asg52
(lp94
I1
asg54
(lp95
I1
asg56
(lp96
I1
asg58
(lp97
I1
assg60
(g61
g62
tp98
sg64
(dp99
g48
(lp100
F0.0024811324378710697
asg50
(lp101
F3.739868345512989
asg52
(lp102
F0.01962877196514497
asg54
(lp103
F0.10443509697254726
asg56
(lp104
F3.6817991715939523e-06
asg58
(lp105
F12.0
assg72
Nssg73
I2
sg45
I1
sg74
Nsg75
I0
sg76
(dp106
g78
g79
sg80
F-0.676233813722133
ssg81
Nsg82
NsasS'_exp_key'
p107
NsS'_dynamic_trials'
p108
(lp109
g33
ag83
asS'_ids'
p110
c__builtin__
set
p111
((lp112
I0
aI1
atp113
Rp114
sb.